target datalayout = "e-m:e-p270:32:32-p271:32:32-p272:64:64-i64:64-i128:128-f80:128-n8:16:32:64-S128"
target triple = "x86_64-pc-linux-gnu"

%struct.archive = type { i32, i32, ptr, i32, ptr, i32, i32, ptr, %struct.archive_string, ptr, i32, i32, ptr, ptr, i64, i64, i64, i8, i64 }
%struct.archive_string = type { ptr, i64, i64 }

@.str.15 = private unnamed_addr constant [39 x i8] c"Encountered out-of-order sparse blocks\00", align 1

; Function Attrs: nounwind uwtable
define dso_local i64 @archive_read_data(ptr noundef %0, ptr noundef %1, i64 noundef %2) #0 {
  %4 = alloca i64, align 8
  %5 = alloca ptr, align 8
  %6 = alloca ptr, align 8
  %7 = alloca i64, align 8
  %8 = alloca ptr, align 8
  %9 = alloca ptr, align 8
  %10 = alloca ptr, align 8
  %11 = alloca i64, align 8
  %12 = alloca i64, align 8
  %13 = alloca i32, align 4
  %14 = alloca i32, align 4
  store ptr %0, ptr %5, align 8, !tbaa !31
  store ptr %1, ptr %6, align 8, !tbaa !37
  store i64 %2, ptr %7, align 8, !tbaa !33
  call void @llvm.lifetime.start.p0(i64 8, ptr %8) #11
  %15 = load ptr, ptr %5, align 8, !tbaa !31
  store ptr %15, ptr %8, align 8, !tbaa !31
  call void @llvm.lifetime.start.p0(i64 8, ptr %9) #11
  call void @llvm.lifetime.start.p0(i64 8, ptr %10) #11
  call void @llvm.lifetime.start.p0(i64 8, ptr %11) #11
  call void @llvm.lifetime.start.p0(i64 8, ptr %12) #11
  call void @llvm.lifetime.start.p0(i64 4, ptr %13) #11
  store i64 0, ptr %11, align 8, !tbaa !33
  %16 = load ptr, ptr %6, align 8, !tbaa !37
  store ptr %16, ptr %9, align 8, !tbaa !95
  br label %17

17:                                               ; preds = %169, %3
  %18 = load i64, ptr %7, align 8, !tbaa !33
  %19 = icmp ugt i64 %18, 0
  br i1 %19, label %20, label %170

20:                                               ; preds = %17
  %21 = load ptr, ptr %8, align 8, !tbaa !31
  %22 = getelementptr inbounds nuw %struct.archive, ptr %21, i32 0, i32 14
  %23 = load i64, ptr %22, align 8, !tbaa !96
  %24 = load ptr, ptr %8, align 8, !tbaa !31
  %25 = getelementptr inbounds nuw %struct.archive, ptr %24, i32 0, i32 15
  %26 = load i64, ptr %25, align 8, !tbaa !97
  %27 = icmp eq i64 %23, %26
  br i1 %27, label %28, label %62

28:                                               ; preds = %20
  %29 = load ptr, ptr %8, align 8, !tbaa !31
  %30 = getelementptr inbounds nuw %struct.archive, ptr %29, i32 0, i32 16
  %31 = load i64, ptr %30, align 8, !tbaa !98
  %32 = icmp eq i64 %31, 0
  br i1 %32, label %33, label %62

33:                                               ; preds = %28
  %34 = load ptr, ptr %8, align 8, !tbaa !31
  %35 = getelementptr inbounds nuw %struct.archive, ptr %34, i32 0, i32 13
  %36 = load ptr, ptr %35, align 8, !tbaa !99
  store ptr %36, ptr %10, align 8, !tbaa !37
  %37 = load ptr, ptr %8, align 8, !tbaa !31
  %38 = getelementptr inbounds nuw %struct.archive, ptr %37, i32 0, i32 17
  store i8 1, ptr %38, align 8, !tbaa !100
  %39 = load i64, ptr %7, align 8, !tbaa !33
  %40 = load ptr, ptr %8, align 8, !tbaa !31
  %41 = getelementptr inbounds nuw %struct.archive, ptr %40, i32 0, i32 18
  store i64 %39, ptr %41, align 8, !tbaa !101
  %42 = load ptr, ptr %8, align 8, !tbaa !31
  %43 = load ptr, ptr %8, align 8, !tbaa !31
  %44 = getelementptr inbounds nuw %struct.archive, ptr %43, i32 0, i32 16
  %45 = load ptr, ptr %8, align 8, !tbaa !31
  %46 = getelementptr inbounds nuw %struct.archive, ptr %45, i32 0, i32 14
  %47 = call i32 @archive_read_data_block(ptr noundef %42, ptr noundef %10, ptr noundef %44, ptr noundef %46)
  store i32 %47, ptr %13, align 4, !tbaa !38
  %48 = load ptr, ptr %10, align 8, !tbaa !37
  %49 = load ptr, ptr %8, align 8, !tbaa !31
  %50 = getelementptr inbounds nuw %struct.archive, ptr %49, i32 0, i32 13
  store ptr %48, ptr %50, align 8, !tbaa !99
  %51 = load i32, ptr %13, align 4, !tbaa !38
  %52 = icmp eq i32 %51, 1
  br i1 %52, label %53, label %55

53:                                               ; preds = %33
  %54 = load i64, ptr %11, align 8, !tbaa !33
  store i64 %54, ptr %4, align 8
  store i32 1, ptr %14, align 4
  br label %176

55:                                               ; preds = %33
  %56 = load i32, ptr %13, align 4, !tbaa !38
  %57 = icmp slt i32 %56, 0
  br i1 %57, label %58, label %61

58:                                               ; preds = %55
  %59 = load i32, ptr %13, align 4, !tbaa !38
  %60 = sext i32 %59 to i64
  store i64 %60, ptr %4, align 8
  store i32 1, ptr %14, align 4
  br label %176

61:                                               ; preds = %55
  br label %62

62:                                               ; preds = %61, %28, %20
  %63 = load ptr, ptr %8, align 8, !tbaa !31
  %64 = getelementptr inbounds nuw %struct.archive, ptr %63, i32 0, i32 14
  %65 = load i64, ptr %64, align 8, !tbaa !96
  %66 = load ptr, ptr %8, align 8, !tbaa !31
  %67 = getelementptr inbounds nuw %struct.archive, ptr %66, i32 0, i32 15
  %68 = load i64, ptr %67, align 8, !tbaa !97
  %69 = icmp slt i64 %65, %68
  br i1 %69, label %70, label %72

70:                                               ; preds = %62
  %71 = load ptr, ptr %8, align 8, !tbaa !31
  call void (ptr, i32, ptr, ...) @archive_set_error(ptr noundef %71, i32 noundef 84, ptr noundef @.str.15)
  store i64 -10, ptr %4, align 8
  store i32 1, ptr %14, align 4
  br label %176

72:                                               ; preds = %62
  %73 = load ptr, ptr %8, align 8, !tbaa !31
  %74 = getelementptr inbounds nuw %struct.archive, ptr %73, i32 0, i32 15
  %75 = load i64, ptr %74, align 8, !tbaa !97
  %76 = load i64, ptr %7, align 8, !tbaa !33
  %77 = add nsw i64 %75, %76
  %78 = load ptr, ptr %8, align 8, !tbaa !31
  %79 = getelementptr inbounds nuw %struct.archive, ptr %78, i32 0, i32 14
  %80 = load i64, ptr %79, align 8, !tbaa !96
  %81 = icmp slt i64 %77, %80
  br i1 %81, label %82, label %84

82:                                               ; preds = %72
  %83 = load i64, ptr %7, align 8, !tbaa !33
  store i64 %83, ptr %12, align 8, !tbaa !33
  br label %102

84:                                               ; preds = %72
  %85 = load ptr, ptr %8, align 8, !tbaa !31
  %86 = getelementptr inbounds nuw %struct.archive, ptr %85, i32 0, i32 15
  %87 = load i64, ptr %86, align 8, !tbaa !97
  %88 = load ptr, ptr %8, align 8, !tbaa !31
  %89 = getelementptr inbounds nuw %struct.archive, ptr %88, i32 0, i32 14
  %90 = load i64, ptr %89, align 8, !tbaa !96
  %91 = icmp slt i64 %87, %90
  br i1 %91, label %92, label %100

92:                                               ; preds = %84
  %93 = load ptr, ptr %8, align 8, !tbaa !31
  %94 = getelementptr inbounds nuw %struct.archive, ptr %93, i32 0, i32 14
  %95 = load i64, ptr %94, align 8, !tbaa !96
  %96 = load ptr, ptr %8, align 8, !tbaa !31
  %97 = getelementptr inbounds nuw %struct.archive, ptr %96, i32 0, i32 15
  %98 = load i64, ptr %97, align 8, !tbaa !97
  %99 = sub nsw i64 %95, %98
  store i64 %99, ptr %12, align 8, !tbaa !33
  br label %101

100:                                              ; preds = %84
  store i64 0, ptr %12, align 8, !tbaa !33
  br label %101

101:                                              ; preds = %100, %92
  br label %102

102:                                              ; preds = %101, %82
  %103 = load ptr, ptr %9, align 8, !tbaa !95
  %104 = load i64, ptr %12, align 8, !tbaa !33
  call void @llvm.memset.p0.i64(ptr align 1 %103, i8 0, i64 %104, i1 false)
  %105 = load i64, ptr %12, align 8, !tbaa !33
  %106 = load i64, ptr %7, align 8, !tbaa !33
  %107 = sub i64 %106, %105
  store i64 %107, ptr %7, align 8, !tbaa !33
  %108 = load i64, ptr %12, align 8, !tbaa !33
  %109 = load ptr, ptr %8, align 8, !tbaa !31
  %110 = getelementptr inbounds nuw %struct.archive, ptr %109, i32 0, i32 15
  %111 = load i64, ptr %110, align 8, !tbaa !97
  %112 = add i64 %111, %108
  store i64 %112, ptr %110, align 8, !tbaa !97
  %113 = load i64, ptr %12, align 8, !tbaa !33
  %114 = load ptr, ptr %9, align 8, !tbaa !95
  %115 = getelementptr inbounds nuw i8, ptr %114, i64 %113
  store ptr %115, ptr %9, align 8, !tbaa !95
  %116 = load i64, ptr %12, align 8, !tbaa !33
  %117 = load i64, ptr %11, align 8, !tbaa !33
  %118 = add i64 %117, %116
  store i64 %118, ptr %11, align 8, !tbaa !33
  %119 = load i64, ptr %7, align 8, !tbaa !33
  %120 = icmp ugt i64 %119, 0
  br i1 %120, label %121, label %169

121:                                              ; preds = %102
  %122 = load ptr, ptr %8, align 8, !tbaa !31
  %123 = getelementptr inbounds nuw %struct.archive, ptr %122, i32 0, i32 16
  %124 = load i64, ptr %123, align 8, !tbaa !98
  store i64 %124, ptr %12, align 8, !tbaa !33
  %125 = load i64, ptr %12, align 8, !tbaa !33
  %126 = load i64, ptr %7, align 8, !tbaa !33
  %127 = icmp ugt i64 %125, %126
  br i1 %127, label %128, label %130

128:                                              ; preds = %121
  %129 = load i64, ptr %7, align 8, !tbaa !33
  store i64 %129, ptr %12, align 8, !tbaa !33
  br label %130

130:                                              ; preds = %128, %121
  %131 = load i64, ptr %12, align 8, !tbaa !33
  %132 = icmp ne i64 %131, 0
  br i1 %132, label %133, label %168

133:                                              ; preds = %130
  %134 = load ptr, ptr %9, align 8, !tbaa !95
  %135 = load ptr, ptr %8, align 8, !tbaa !31
  %136 = getelementptr inbounds nuw %struct.archive, ptr %135, i32 0, i32 13
  %137 = load ptr, ptr %136, align 8, !tbaa !99
  %138 = load i64, ptr %12, align 8, !tbaa !33
  call void @llvm.memcpy.p0.p0.i64(ptr align 1 %134, ptr align 1 %137, i64 %138, i1 false)
  %139 = load i64, ptr %12, align 8, !tbaa !33
  %140 = load i64, ptr %7, align 8, !tbaa !33
  %141 = sub i64 %140, %139
  store i64 %141, ptr %7, align 8, !tbaa !33
  %142 = load i64, ptr %12, align 8, !tbaa !33
  %143 = load ptr, ptr %8, align 8, !tbaa !31
  %144 = getelementptr inbounds nuw %struct.archive, ptr %143, i32 0, i32 13
  %145 = load ptr, ptr %144, align 8, !tbaa !99
  %146 = getelementptr inbounds nuw i8, ptr %145, i64 %142
  store ptr %146, ptr %144, align 8, !tbaa !99
  %147 = load i64, ptr %12, align 8, !tbaa !33
  %148 = load ptr, ptr %8, align 8, !tbaa !31
  %149 = getelementptr inbounds nuw %struct.archive, ptr %148, i32 0, i32 16
  %150 = load i64, ptr %149, align 8, !tbaa !98
  %151 = sub i64 %150, %147
  store i64 %151, ptr %149, align 8, !tbaa !98
  %152 = load i64, ptr %12, align 8, !tbaa !33
  %153 = load ptr, ptr %8, align 8, !tbaa !31
  %154 = getelementptr inbounds nuw %struct.archive, ptr %153, i32 0, i32 15
  %155 = load i64, ptr %154, align 8, !tbaa !97
  %156 = add i64 %155, %152
  store i64 %156, ptr %154, align 8, !tbaa !97
  %157 = load i64, ptr %12, align 8, !tbaa !33
  %158 = load ptr, ptr %8, align 8, !tbaa !31
  %159 = getelementptr inbounds nuw %struct.archive, ptr %158, i32 0, i32 14
  %160 = load i64, ptr %159, align 8, !tbaa !96
  %161 = add i64 %160, %157
  store i64 %161, ptr %159, align 8, !tbaa !96
  %162 = load i64, ptr %12, align 8, !tbaa !33
  %163 = load ptr, ptr %9, align 8, !tbaa !95
  %164 = getelementptr inbounds nuw i8, ptr %163, i64 %162
  store ptr %164, ptr %9, align 8, !tbaa !95
  %165 = load i64, ptr %12, align 8, !tbaa !33
  %166 = load i64, ptr %11, align 8, !tbaa !33
  %167 = add i64 %166, %165
  store i64 %167, ptr %11, align 8, !tbaa !33
  br label %168

168:                                              ; preds = %133, %130
  br label %169

169:                                              ; preds = %168, %102
  br label %17, !llvm.loop !102

170:                                              ; preds = %17
  %171 = load ptr, ptr %8, align 8, !tbaa !31
  %172 = getelementptr inbounds nuw %struct.archive, ptr %171, i32 0, i32 17
  store i8 0, ptr %172, align 8, !tbaa !100
  %173 = load ptr, ptr %8, align 8, !tbaa !31
  %174 = getelementptr inbounds nuw %struct.archive, ptr %173, i32 0, i32 18
  store i64 0, ptr %174, align 8, !tbaa !101
  %175 = load i64, ptr %11, align 8, !tbaa !33
  store i64 %175, ptr %4, align 8
  store i32 1, ptr %14, align 4
  br label %176

176:                                              ; preds = %170, %70, %58, %53
  call void @llvm.lifetime.end.p0(i64 4, ptr %13) #11
  call void @llvm.lifetime.end.p0(i64 8, ptr %12) #11
  call void @llvm.lifetime.end.p0(i64 8, ptr %11) #11
  call void @llvm.lifetime.end.p0(i64 8, ptr %10) #11
  call void @llvm.lifetime.end.p0(i64 8, ptr %9) #11
  call void @llvm.lifetime.end.p0(i64 8, ptr %8) #11
  %177 = load i64, ptr %4, align 8
  ret i64 %177
}