; Function Attrs: nounwind uwtable
define dso_local i64 @archive_read_data(ptr noundef %0, ptr noundef writeonly captures(none) %1, i64 noundef %2) local_unnamed_addr #0 {
  %4 = alloca ptr, align 8
  call void @llvm.lifetime.start.p0(i64 8, ptr nonnull %4) #15
  %.not85 = icmp eq i64 %2, 0
  br i1 %.not85, label %._crit_edge, label %.lr.ph

.lr.ph:                                           ; preds = %3
  %5 = getelementptr inbounds nuw i8, ptr %0, i64 104
  %6 = getelementptr inbounds nuw i8, ptr %0, i64 112
  %7 = getelementptr inbounds nuw i8, ptr %0, i64 120
  %8 = getelementptr inbounds nuw i8, ptr %0, i64 96
  %9 = getelementptr inbounds nuw i8, ptr %0, i64 128
  %10 = getelementptr inbounds nuw i8, ptr %0, i64 136
  %.pre = load i64, ptr %6, align 8, !tbaa !87
  br label %11

11:                                               ; preds = %.lr.ph, %58
  %12 = phi i64 [ %.pre, %.lr.ph ], [ %59, %58 ]
  %.06688 = phi i64 [ 0, %.lr.ph ], [ %.167, %58 ]
  %.06887 = phi ptr [ %1, %.lr.ph ], [ %.169, %58 ]
  %.07086 = phi i64 [ %2, %.lr.ph ], [ %.171, %58 ]
  %13 = load i64, ptr %5, align 8, !tbaa !88
  %14 = icmp eq i64 %13, %12
  br i1 %14, label %15, label %27

15:                                               ; preds = %11
  %16 = load i64, ptr %7, align 8, !tbaa !89
  %17 = icmp eq i64 %16, 0
  br i1 %17, label %18, label %.thread

18:                                               ; preds = %15
  %19 = load ptr, ptr %8, align 8, !tbaa !90
  store ptr %19, ptr %4, align 8, !tbaa !91
  store i8 1, ptr %9, align 8, !tbaa !92
  store i64 %.07086, ptr %10, align 8, !tbaa !93
  %20 = call i32 @archive_read_data_block(ptr noundef nonnull %0, ptr noundef nonnull %4, ptr noundef nonnull %7, ptr noundef nonnull %5) #15
  %21 = load ptr, ptr %4, align 8, !tbaa !91
  store ptr %21, ptr %8, align 8, !tbaa !90
  %22 = icmp eq i32 %20, 1
  br i1 %22, label %.loopexit, label %23

23:                                               ; preds = %18
  %24 = icmp slt i32 %20, 0
  br i1 %24, label %25, label %._crit_edge93

._crit_edge93:                                    ; preds = %23
  %.pre94 = load i64, ptr %5, align 8, !tbaa !88
  %.pre95 = load i64, ptr %6, align 8, !tbaa !87
  br label %27

25:                                               ; preds = %23
  %26 = sext i32 %20 to i64
  br label %.loopexit

27:                                               ; preds = %._crit_edge93, %11
  %28 = phi i64 [ %.pre95, %._crit_edge93 ], [ %12, %11 ]
  %29 = phi i64 [ %.pre94, %._crit_edge93 ], [ %13, %11 ]
  %30 = icmp slt i64 %29, %28
  br i1 %30, label %31, label %.thread

31:                                               ; preds = %27
  call void (ptr, i32, ptr, ...) @archive_set_error(ptr noundef nonnull %0, i32 noundef 84, ptr noundef nonnull @.str.15) #15
  br label %.loopexit

.thread:                                          ; preds = %15, %27
  %32 = phi i64 [ %29, %27 ], [ %12, %15 ]
  %33 = phi i64 [ %28, %27 ], [ %12, %15 ]
  %34 = add nsw i64 %33, %.07086
  %35 = icmp slt i64 %34, %32
  %36 = icmp slt i64 %33, %32
  %37 = sub nsw i64 %32, %33
  %spec.select80 = select i1 %36, i64 %37, i64 0
  %.065 = select i1 %35, i64 %.07086, i64 %spec.select80
  call void @llvm.memset.p0.i64(ptr align 1 %.06887, i8 0, i64 %.065, i1 false)
  %38 = sub i64 %.07086, %.065
  %39 = load i64, ptr %6, align 8, !tbaa !87
  %40 = add i64 %39, %.065
  store i64 %40, ptr %6, align 8, !tbaa !87
  %41 = getelementptr inbounds nuw i8, ptr %.06887, i64 %.065
  %42 = add i64 %.065, %.06688
  %.not78 = icmp eq i64 %38, 0
  br i1 %.not78, label %._crit_edge, label %43

43:                                               ; preds = %.thread
  %44 = load i64, ptr %7, align 8, !tbaa !89
  %.not79 = icmp eq i64 %44, 0
  br i1 %.not79, label %58, label %45

45:                                               ; preds = %43
  %spec.select = call i64 @llvm.umin.i64(i64 %44, i64 %38)
  %46 = load ptr, ptr %8, align 8, !tbaa !90
  call void @llvm.memcpy.p0.p0.i64(ptr align 1 %41, ptr align 1 %46, i64 %spec.select, i1 false)
  %47 = sub i64 %38, %spec.select
  %48 = load ptr, ptr %8, align 8, !tbaa !90
  %49 = getelementptr inbounds nuw i8, ptr %48, i64 %spec.select
  store ptr %49, ptr %8, align 8, !tbaa !90
  %50 = load i64, ptr %7, align 8, !tbaa !89
  %51 = sub i64 %50, %spec.select
  store i64 %51, ptr %7, align 8, !tbaa !89
  %52 = load i64, ptr %6, align 8, !tbaa !87
  %53 = add i64 %52, %spec.select
  store i64 %53, ptr %6, align 8, !tbaa !87
  %54 = load i64, ptr %5, align 8, !tbaa !88
  %55 = add i64 %54, %spec.select
  store i64 %55, ptr %5, align 8, !tbaa !88
  %56 = getelementptr inbounds nuw i8, ptr %41, i64 %spec.select
  %57 = add i64 %spec.select, %42
  br label %58

58:                                               ; preds = %43, %45
  %59 = phi i64 [ %53, %45 ], [ %40, %43 ]
  %.171 = phi i64 [ %47, %45 ], [ %38, %43 ]
  %.169 = phi ptr [ %56, %45 ], [ %41, %43 ]
  %.167 = phi i64 [ %57, %45 ], [ %42, %43 ]
  %.not = icmp eq i64 %.171, 0
  br i1 %.not, label %._crit_edge, label %11, !llvm.loop !94

._crit_edge:                                      ; preds = %.thread, %58, %3
  %.066.lcssa = phi i64 [ 0, %3 ], [ %42, %.thread ], [ %.167, %58 ]
  %60 = getelementptr inbounds nuw i8, ptr %0, i64 128
  store i8 0, ptr %60, align 8, !tbaa !92
  %61 = getelementptr inbounds nuw i8, ptr %0, i64 136
  store i64 0, ptr %61, align 8, !tbaa !93
  br label %.loopexit

.loopexit:                                        ; preds = %18, %._crit_edge, %31, %25
  %.0 = phi i64 [ %26, %25 ], [ -10, %31 ], [ %.066.lcssa, %._crit_edge ], [ %.06688, %18 ]
  call void @llvm.lifetime.end.p0(i64 8, ptr nonnull %4) #15
  ret i64 %.0
}